; Function Attrs: nounwind uwtable
define void @lv_buttonmatrix_set_button_width(ptr noundef %0, i32 noundef %1, i32 noundef %2) local_unnamed_addr #0 {
  %4 = getelementptr inbounds nuw i8, ptr %0, i64 88
  %5 = load i32, ptr %4, align 8, !tbaa !3
  %.not = icmp ult i32 %1, %5
  br i1 %.not, label %6, label %17

6:                                                ; preds = %3
  %7 = getelementptr inbounds nuw i8, ptr %0, i64 80
  %8 = load ptr, ptr %7, align 8, !tbaa !15
  %9 = zext i32 %1 to i64
  %10 = getelementptr inbounds nuw i32, ptr %8, i64 %9
  %11 = load i32, ptr %10, align 4, !tbaa !21
  %12 = and i32 %11, -16
  %13 = and i32 %2, 15
  %14 = or disjoint i32 %12, %13
  store i32 %14, ptr %10, align 4, !tbaa !21
  %15 = getelementptr inbounds nuw i8, ptr %0, i64 64
  %16 = load ptr, ptr %15, align 8, !tbaa !16
  tail call void @lv_buttonmatrix_set_map(ptr noundef nonnull %0, ptr noundef %16)
  br label %17

17:                                               ; preds = %3, %6
  ret void
}